target datalayout = "e-m:e-p270:32:32-p271:32:32-p272:64:64-i64:64-i128:128-f80:128-n8:16:32:64-S128"
target triple = "x86_64-pc-linux-gnu"

@app_pkey_methods = internal global ptr null, align 8

; Function Attrs: inlinehint nounwind uwtable
define internal ptr @sk_EVP_PKEY_METHOD_value(ptr noundef %0, i32 noundef %1) #5 {
  %3 = alloca ptr, align 8
  %4 = alloca i32, align 4
  store ptr %0, ptr %3, align 8, !tbaa !13
  store i32 %1, ptr %4, align 4, !tbaa !3
  %5 = load ptr, ptr %3, align 8, !tbaa !13
  %6 = load i32, ptr %4, align 4, !tbaa !3
  %7 = call ptr @OPENSSL_sk_value(ptr noundef %5, i32 noundef %6)
  ret ptr %7
}

; Function Attrs: inlinehint nounwind uwtable
define internal i32 @sk_EVP_PKEY_METHOD_num(ptr noundef %0) #5 {
  %2 = alloca ptr, align 8
  store ptr %0, ptr %2, align 8, !tbaa !13
  %3 = load ptr, ptr %2, align 8, !tbaa !13
  %4 = call i32 @OPENSSL_sk_num(ptr noundef %3)
  ret i32 %4
}

; Function Attrs: nounwind uwtable
define ptr @EVP_PKEY_meth_get0(i64 noundef %0) #0 {
  %2 = alloca ptr, align 8
  %3 = alloca i64, align 8
  store i64 %0, ptr %3, align 8, !tbaa !77
  %4 = load i64, ptr %3, align 8, !tbaa !77
  %5 = icmp ult i64 %4, 10
  br i1 %5, label %6, label %11

6:                                                ; preds = %1
  %7 = load i64, ptr %3, align 8, !tbaa !77
  %8 = getelementptr inbounds nuw [10 x ptr], ptr @standard_methods, i64 0, i64 %7
  %9 = load ptr, ptr %8, align 8, !tbaa !12
  %10 = call ptr %9()
  store ptr %10, ptr %2, align 8
  br label %29

11:                                               ; preds = %1
  %12 = load ptr, ptr @app_pkey_methods, align 8, !tbaa !13
  %13 = icmp eq ptr %12, null
  br i1 %13, label %14, label %15

14:                                               ; preds = %11
  store ptr null, ptr %2, align 8
  br label %29

15:                                               ; preds = %11
  %16 = load i64, ptr %3, align 8, !tbaa !77
  %17 = sub i64 %16, 10
  store i64 %17, ptr %3, align 8, !tbaa !77
  %18 = load i64, ptr %3, align 8, !tbaa !77
  %19 = load ptr, ptr @app_pkey_methods, align 8, !tbaa !13
  %20 = call i32 @sk_EVP_PKEY_METHOD_num(ptr noundef %19)
  %21 = sext i32 %20 to i64
  %22 = icmp uge i64 %18, %21
  br i1 %22, label %23, label %24

23:                                               ; preds = %15
  store ptr null, ptr %2, align 8
  br label %29

24:                                               ; preds = %15
  %25 = load ptr, ptr @app_pkey_methods, align 8, !tbaa !13
  %26 = load i64, ptr %3, align 8, !tbaa !77
  %27 = trunc i64 %26 to i32
  %28 = call ptr @sk_EVP_PKEY_METHOD_value(ptr noundef %25, i32 noundef %27)
  store ptr %28, ptr %2, align 8
  br label %29

29:                                               ; preds = %24, %23, %14, %6
  %30 = load ptr, ptr %2, align 8
  ret ptr %30
}