; Function Attrs: nounwind uwtable
define ptr @EVP_PKEY_meth_get0(i64 noundef %0) local_unnamed_addr #0 {
  %2 = icmp ult i64 %0, 10
  br i1 %2, label %3, label %7

3:                                                ; preds = %1
  %4 = getelementptr inbounds nuw [10 x ptr], ptr @standard_methods, i64 0, i64 %0
  %5 = load ptr, ptr %4, align 8, !tbaa !13
  %6 = tail call ptr %5() #10
  br label %18

7:                                                ; preds = %1
  %8 = load ptr, ptr @app_pkey_methods, align 8, !tbaa !3
  %9 = icmp eq ptr %8, null
  br i1 %9, label %18, label %10

10:                                               ; preds = %7
  %11 = add i64 %0, -10
  %12 = tail call i32 @OPENSSL_sk_num(ptr noundef nonnull %8) #10
  %13 = sext i32 %12 to i64
  %.not = icmp ult i64 %11, %13
  br i1 %.not, label %14, label %18

14:                                               ; preds = %10
  %15 = load ptr, ptr @app_pkey_methods, align 8, !tbaa !3
  %16 = trunc i64 %11 to i32
  %17 = tail call ptr @OPENSSL_sk_value(ptr noundef %15, i32 noundef %16) #10
  br label %18

18:                                               ; preds = %10, %7, %14, %3
  %.0 = phi ptr [ %6, %3 ], [ %17, %14 ], [ null, %7 ], [ null, %10 ]
  ret ptr %.0
}